target datalayout = "e-m:e-p270:32:32-p271:32:32-p272:64:64-i64:64-i128:128-f80:128-n8:16:32:64-S128"
target triple = "x86_64-pc-linux-gnu"

%struct.ResourceOwnerDesc = type { ptr, i32, i32, ptr, ptr }
%struct.RelationData = type { %struct.RelFileLocator, ptr, i32, i32, i8, i8, i8, i8, i8, i32, i32, i32, i32, ptr, ptr, i32, %struct.LockInfoData, ptr, ptr, ptr, ptr, ptr, i8, ptr, ptr, ptr, ptr, ptr, ptr, i32, ptr, i8, ptr, ptr, i32, i8, i32, ptr, i8, ptr, ptr, ptr, ptr, ptr, ptr, ptr, i32, ptr, ptr, ptr, ptr, ptr, ptr, ptr, ptr, ptr, ptr, ptr, ptr, ptr, ptr, ptr, ptr, ptr, ptr, ptr, i32, i8, ptr }
%struct.RelFileLocator = type { i32, i32, i32 }
%struct.LockInfoData = type { %struct.LockRelId }
%struct.LockRelId = type { i32, i32 }

@CurrentResourceOwner = external global ptr, align 8
@Mode = external global i32, align 4
@relref_resowner_desc = internal constant %struct.ResourceOwnerDesc { ptr @.str.57, i32 1, i32 300, ptr @ResOwnerReleaseRelation, ptr @ResOwnerPrintRelCache }, align 8

; Function Attrs: inlinehint nounwind uwtable
define internal i64 @PointerGetDatum(ptr noundef %0) #3 {
  %2 = alloca ptr, align 8
  store ptr %0, ptr %2, align 8
  %3 = load ptr, ptr %2, align 8
  %4 = ptrtoint ptr %3 to i64
  ret i64 %4
}

; Function Attrs: inlinehint nounwind uwtable
define internal void @ResourceOwnerRememberRelationRef(ptr noundef %0, ptr noundef %1) #3 {
  %3 = alloca ptr, align 8
  %4 = alloca ptr, align 8
  store ptr %0, ptr %3, align 8
  store ptr %1, ptr %4, align 8
  %5 = load ptr, ptr %3, align 8
  %6 = load ptr, ptr %4, align 8
  %7 = call i64 @PointerGetDatum(ptr noundef %6)
  call void @ResourceOwnerRemember(ptr noundef %5, i64 noundef %7, ptr noundef @relref_resowner_desc)
  ret void
}

; Function Attrs: nounwind uwtable
define dso_local void @RelationIncrementReferenceCount(ptr noundef %0) #0 {
  %2 = alloca ptr, align 8
  store ptr %0, ptr %2, align 8
  %3 = load ptr, ptr @CurrentResourceOwner, align 8
  call void @ResourceOwnerEnlarge(ptr noundef %3)
  %4 = load ptr, ptr %2, align 8
  %5 = getelementptr inbounds nuw %struct.RelationData, ptr %4, i32 0, i32 2
  %6 = load i32, ptr %5, align 8
  %7 = add i32 %6, 1
  store i32 %7, ptr %5, align 8
  %8 = load i32, ptr @Mode, align 4
  %9 = icmp eq i32 %8, 0
  br i1 %9, label %13, label %10

10:                                               ; preds = %1
  %11 = load ptr, ptr @CurrentResourceOwner, align 8
  %12 = load ptr, ptr %2, align 8
  call void @ResourceOwnerRememberRelationRef(ptr noundef %11, ptr noundef %12)
  br label %13

13:                                               ; preds = %10, %1
  ret void
}