; Function Attrs: nounwind uwtable
define dso_local void @RelationIncrementReferenceCount(ptr noundef %0) local_unnamed_addr #0 {
  %2 = load ptr, ptr @CurrentResourceOwner, align 8
  tail call void @ResourceOwnerEnlarge(ptr noundef %2) #13
  %3 = getelementptr inbounds nuw i8, ptr %0, i64 24
  %4 = load i32, ptr %3, align 8
  %5 = add i32 %4, 1
  store i32 %5, ptr %3, align 8
  %6 = load i32, ptr @Mode, align 4
  %7 = icmp eq i32 %6, 0
  br i1 %7, label %11, label %8

8:                                                ; preds = %1
  %9 = load ptr, ptr @CurrentResourceOwner, align 8
  %10 = ptrtoint ptr %0 to i64
  tail call void @ResourceOwnerRemember(ptr noundef %9, i64 noundef %10, ptr noundef nonnull @relref_resowner_desc) #13
  br label %11

11:                                               ; preds = %8, %1
  ret void
}